; ModuleID = '9/1094.c'
source_filename = "9/1094.c"
target datalayout = "e-m:e-p270:32:32-p271:32:32-p272:64:64-i64:64-f80:128-n8:16:32:64-S128"
target triple = "x86_64-pc-linux-gnu"

@.str = private unnamed_addr constant [3 x i8] c"%d\00", align 1
@.str.1 = private unnamed_addr constant [5 x i8] c"%s%d\00", align 1
@.str.2 = private unnamed_addr constant [4 x i8] c"%s\0A\00", align 1

; Function Attrs: noinline nounwind uwtable
define dso_local i32 @main() #0 {
  %1 = alloca i32, align 4
  %2 = alloca i32, align 4
  %3 = alloca [100 x i32], align 16
  %4 = alloca [100 x i32], align 16
  %5 = alloca [100 x [10 x i8]], align 16
  %6 = alloca [100 x [10 x i8]], align 16
  %7 = alloca [100 x [10 x i8]], align 16
  %8 = alloca i32, align 4
  %9 = alloca i32, align 4
  %10 = alloca i32, align 4
  %11 = alloca i32, align 4
  store i32 0, i32* %1, align 4
  %12 = call i32 (i8*, ...) @__isoc99_scanf(i8* getelementptr inbounds ([3 x i8], [3 x i8]* @.str, i64 0, i64 0), i32* %2)
  store i32 0, i32* %8, align 4
  br label %13

13:                                               ; preds = %26, %0
  %14 = load i32, i32* %8, align 4
  %15 = load i32, i32* %2, align 4
  %16 = icmp slt i32 %14, %15
  br i1 %16, label %17, label %29

17:                                               ; preds = %13
  %18 = load i32, i32* %8, align 4
  %19 = sext i32 %18 to i64
  %20 = getelementptr inbounds [100 x [10 x i8]], [100 x [10 x i8]]* %5, i64 0, i64 %19
  %21 = getelementptr inbounds [10 x i8], [10 x i8]* %20, i64 0, i64 0
  %22 = load i32, i32* %8, align 4
  %23 = sext i32 %22 to i64
  %24 = getelementptr inbounds [100 x i32], [100 x i32]* %3, i64 0, i64 %23
  %25 = call i32 (i8*, ...) @__isoc99_scanf(i8* getelementptr inbounds ([5 x i8], [5 x i8]* @.str.1, i64 0, i64 0), i8* %21, i32* %24)
  br label %26

26:                                               ; preds = %17
  %27 = load i32, i32* %8, align 4
  %28 = add nsw i32 %27, 1
  store i32 %28, i32* %8, align 4
  br label %13

29:                                               ; preds = %13
  store i32 0, i32* %10, align 4
  store i32 0, i32* %11, align 4
  store i32 0, i32* %8, align 4
  br label %30

30:                                               ; preds = %72, %29
  %31 = load i32, i32* %8, align 4
  %32 = load i32, i32* %2, align 4
  %33 = icmp slt i32 %31, %32
  br i1 %33, label %34, label %75

34:                                               ; preds = %30
  %35 = load i32, i32* %8, align 4
  %36 = sext i32 %35 to i64
  %37 = getelementptr inbounds [100 x i32], [100 x i32]* %3, i64 0, i64 %36
  %38 = load i32, i32* %37, align 4
  %39 = icmp slt i32 %38, 60
  br i1 %39, label %40, label %52

40:                                               ; preds = %34
  %41 = load i32, i32* %10, align 4
  %42 = sext i32 %41 to i64
  %43 = getelementptr inbounds [100 x [10 x i8]], [100 x [10 x i8]]* %7, i64 0, i64 %42
  %44 = getelementptr inbounds [10 x i8], [10 x i8]* %43, i64 0, i64 0
  %45 = load i32, i32* %8, align 4
  %46 = sext i32 %45 to i64
  %47 = getelementptr inbounds [100 x [10 x i8]], [100 x [10 x i8]]* %5, i64 0, i64 %46
  %48 = getelementptr inbounds [10 x i8], [10 x i8]* %47, i64 0, i64 0
  %49 = call i8* @strcpy(i8* %44, i8* %48) #3
  %50 = load i32, i32* %10, align 4
  %51 = add nsw i32 %50, 1
  store i32 %51, i32* %10, align 4
  br label %71

52:                                               ; preds = %34
  %53 = load i32, i32* %8, align 4
  %54 = sext i32 %53 to i64
  %55 = getelementptr inbounds [100 x i32], [100 x i32]* %3, i64 0, i64 %54
  %56 = load i32, i32* %55, align 4
  %57 = load i32, i32* %11, align 4
  %58 = sext i32 %57 to i64
  %59 = getelementptr inbounds [100 x i32], [100 x i32]* %4, i64 0, i64 %58
  store i32 %56, i32* %59, align 4
  %60 = load i32, i32* %11, align 4
  %61 = sext i32 %60 to i64
  %62 = getelementptr inbounds [100 x [10 x i8]], [100 x [10 x i8]]* %6, i64 0, i64 %61
  %63 = getelementptr inbounds [10 x i8], [10 x i8]* %62, i64 0, i64 0
  %64 = load i32, i32* %8, align 4
  %65 = sext i32 %64 to i64
  %66 = getelementptr inbounds [100 x [10 x i8]], [100 x [10 x i8]]* %5, i64 0, i64 %65
  %67 = getelementptr inbounds [10 x i8], [10 x i8]* %66, i64 0, i64 0
  %68 = call i8* @strcpy(i8* %63, i8* %67) #3
  %69 = load i32, i32* %11, align 4
  %70 = add nsw i32 %69, 1
  store i32 %70, i32* %11, align 4
  br label %71

71:                                               ; preds = %52, %40
  br label %72

72:                                               ; preds = %71
  %73 = load i32, i32* %8, align 4
  %74 = add nsw i32 %73, 1
  store i32 %74, i32* %8, align 4
  br label %30

75:                                               ; preds = %30
  store i32 150, i32* %8, align 4
  br label %76

76:                                               ; preds = %102, %75
  %77 = load i32, i32* %8, align 4
  %78 = icmp sge i32 %77, 60
  br i1 %78, label %79, label %105

79:                                               ; preds = %76
  store i32 0, i32* %9, align 4
  br label %80

80:                                               ; preds = %98, %79
  %81 = load i32, i32* %9, align 4
  %82 = load i32, i32* %11, align 4
  %83 = icmp slt i32 %81, %82
  br i1 %83, label %84, label %101

84:                                               ; preds = %80
  %85 = load i32, i32* %9, align 4
  %86 = sext i32 %85 to i64
  %87 = getelementptr inbounds [100 x i32], [100 x i32]* %4, i64 0, i64 %86
  %88 = load i32, i32* %87, align 4
  %89 = load i32, i32* %8, align 4
  %90 = icmp eq i32 %88, %89
  br i1 %90, label %91, label %97

91:                                               ; preds = %84
  %92 = load i32, i32* %9, align 4
  %93 = sext i32 %92 to i64
  %94 = getelementptr inbounds [100 x [10 x i8]], [100 x [10 x i8]]* %6, i64 0, i64 %93
  %95 = getelementptr inbounds [10 x i8], [10 x i8]* %94, i64 0, i64 0
  %96 = call i32 (i8*, ...) @printf(i8* getelementptr inbounds ([4 x i8], [4 x i8]* @.str.2, i64 0, i64 0), i8* %95)
  br label %97

97:                                               ; preds = %91, %84
  br label %98

98:                                               ; preds = %97
  %99 = load i32, i32* %9, align 4
  %100 = add nsw i32 %99, 1
  store i32 %100, i32* %9, align 4
  br label %80

101:                                              ; preds = %80
  br label %102

102:                                              ; preds = %101
  %103 = load i32, i32* %8, align 4
  %104 = add nsw i32 %103, -1
  store i32 %104, i32* %8, align 4
  br label %76

105:                                              ; preds = %76
  store i32 0, i32* %8, align 4
  br label %106

106:                                              ; preds = %116, %105
  %107 = load i32, i32* %8, align 4
  %108 = load i32, i32* %10, align 4
  %109 = icmp slt i32 %107, %108
  br i1 %109, label %110, label %119

110:                                              ; preds = %106
  %111 = load i32, i32* %8, align 4
  %112 = sext i32 %111 to i64
  %113 = getelementptr inbounds [100 x [10 x i8]], [100 x [10 x i8]]* %7, i64 0, i64 %112
  %114 = getelementptr inbounds [10 x i8], [10 x i8]* %113, i64 0, i64 0
  %115 = call i32 (i8*, ...) @printf(i8* getelementptr inbounds ([4 x i8], [4 x i8]* @.str.2, i64 0, i64 0), i8* %114)
  br label %116

116:                                              ; preds = %110
  %117 = load i32, i32* %8, align 4
  %118 = add nsw i32 %117, 1
  store i32 %118, i32* %8, align 4
  br label %106

119:                                              ; preds = %106
  ret i32 0
}

declare dso_local i32 @__isoc99_scanf(i8*, ...) #1

; Function Attrs: nounwind
declare dso_local i8* @strcpy(i8*, i8*) #2

declare dso_local i32 @printf(i8*, ...) #1


!llvm.module.flags = !{!0}
!llvm.ident = !{!1}

!0 = !{i32 1, !"wchar_size", i32 4}
!1 = !{!"clang version 10.0.0-4ubuntu1 "}
